; ModuleID = '57/2601.c'
source_filename = "57/2601.c"
target datalayout = "e-m:e-p270:32:32-p271:32:32-p272:64:64-i64:64-f80:128-n8:16:32:64-S128"
target triple = "x86_64-pc-linux-gnu"

@M = dso_local constant i32 50, align 4
@__const.main._s = private unnamed_addr constant [4 x i8] c"ing\00", align 1
@.str = private unnamed_addr constant [3 x i8] c"%d\00", align 1
@.str.1 = private unnamed_addr constant [3 x i8] c"%s\00", align 1
@.str.2 = private unnamed_addr constant [3 x i8] c"%c\00", align 1
@.str.3 = private unnamed_addr constant [2 x i8] c"\0A\00", align 1

; Function Attrs: noinline nounwind uwtable
define dso_local i32 @main(i32 %0, i8** %1) #0 {
  %3 = alloca i32, align 4
  %4 = alloca i32, align 4
  %5 = alloca i8**, align 8
  %6 = alloca [100 x i8], align 16
  %7 = alloca [4 x i8], align 1
  %8 = alloca [4 x i8], align 1
  %9 = alloca i32, align 4
  %10 = alloca i32, align 4
  %11 = alloca i32, align 4
  %12 = alloca i32, align 4
  store i32 0, i32* %3, align 4
  store i32 %0, i32* %4, align 4
  store i8** %1, i8*** %5, align 8
  %13 = bitcast [4 x i8]* %8 to i8*
  call void @llvm.memcpy.p0i8.p0i8.i64(i8* align 1 %13, i8* align 1 getelementptr inbounds ([4 x i8], [4 x i8]* @__const.main._s, i32 0, i32 0), i64 4, i1 false)
  %14 = call i32 (i8*, ...) @__isoc99_scanf(i8* getelementptr inbounds ([3 x i8], [3 x i8]* @.str, i64 0, i64 0), i32* %9)
  br label %15

15:                                               ; preds = %83, %2
  %16 = load i32, i32* %9, align 4
  %17 = add nsw i32 %16, -1
  store i32 %17, i32* %9, align 4
  %18 = icmp ne i32 %16, 0
  br i1 %18, label %19, label %84

19:                                               ; preds = %15
  %20 = call i32 (i8*, ...) @__isoc99_scanf(i8* getelementptr inbounds ([3 x i8], [3 x i8]* @.str.1, i64 0, i64 0), [100 x i8]* %6)
  %21 = getelementptr inbounds [100 x i8], [100 x i8]* %6, i64 0, i64 0
  %22 = call i64 @strlen(i8* %21) #4
  %23 = trunc i64 %22 to i32
  store i32 %23, i32* %11, align 4
  store i32 0, i32* %12, align 4
  %24 = load i32, i32* %11, align 4
  %25 = sub nsw i32 %24, 3
  %26 = sext i32 %25 to i64
  %27 = getelementptr inbounds [100 x i8], [100 x i8]* %6, i64 0, i64 %26
  %28 = load i8, i8* %27, align 1
  %29 = getelementptr inbounds [4 x i8], [4 x i8]* %7, i64 0, i64 0
  store i8 %28, i8* %29, align 1
  %30 = load i32, i32* %11, align 4
  %31 = sub nsw i32 %30, 2
  %32 = sext i32 %31 to i64
  %33 = getelementptr inbounds [100 x i8], [100 x i8]* %6, i64 0, i64 %32
  %34 = load i8, i8* %33, align 1
  %35 = getelementptr inbounds [4 x i8], [4 x i8]* %7, i64 0, i64 1
  store i8 %34, i8* %35, align 1
  %36 = load i32, i32* %11, align 4
  %37 = sub nsw i32 %36, 1
  %38 = sext i32 %37 to i64
  %39 = getelementptr inbounds [100 x i8], [100 x i8]* %6, i64 0, i64 %38
  %40 = load i8, i8* %39, align 1
  %41 = getelementptr inbounds [4 x i8], [4 x i8]* %7, i64 0, i64 2
  store i8 %40, i8* %41, align 1
  %42 = getelementptr inbounds [4 x i8], [4 x i8]* %7, i64 0, i64 3
  store i8 0, i8* %42, align 1
  %43 = getelementptr inbounds [4 x i8], [4 x i8]* %8, i64 0, i64 0
  %44 = getelementptr inbounds [4 x i8], [4 x i8]* %7, i64 0, i64 0
  %45 = call i32 @strcmp(i8* %43, i8* %44) #4
  %46 = icmp ne i32 %45, 0
  br i1 %46, label %65, label %47

47:                                               ; preds = %19
  store i32 0, i32* %10, align 4
  br label %48

48:                                               ; preds = %60, %47
  %49 = load i32, i32* %10, align 4
  %50 = load i32, i32* %11, align 4
  %51 = sub nsw i32 %50, 3
  %52 = icmp slt i32 %49, %51
  br i1 %52, label %53, label %63

53:                                               ; preds = %48
  %54 = load i32, i32* %10, align 4
  %55 = sext i32 %54 to i64
  %56 = getelementptr inbounds [100 x i8], [100 x i8]* %6, i64 0, i64 %55
  %57 = load i8, i8* %56, align 1
  %58 = sext i8 %57 to i32
  %59 = call i32 (i8*, ...) @printf(i8* getelementptr inbounds ([3 x i8], [3 x i8]* @.str.2, i64 0, i64 0), i32 %58)
  br label %60

60:                                               ; preds = %53
  %61 = load i32, i32* %10, align 4
  %62 = add nsw i32 %61, 1
  store i32 %62, i32* %10, align 4
  br label %48

63:                                               ; preds = %48
  %64 = call i32 (i8*, ...) @printf(i8* getelementptr inbounds ([2 x i8], [2 x i8]* @.str.3, i64 0, i64 0))
  br label %83

65:                                               ; preds = %19
  store i32 0, i32* %10, align 4
  br label %66

66:                                               ; preds = %78, %65
  %67 = load i32, i32* %10, align 4
  %68 = load i32, i32* %11, align 4
  %69 = sub nsw i32 %68, 2
  %70 = icmp slt i32 %67, %69
  br i1 %70, label %71, label %81

71:                                               ; preds = %66
  %72 = load i32, i32* %10, align 4
  %73 = sext i32 %72 to i64
  %74 = getelementptr inbounds [100 x i8], [100 x i8]* %6, i64 0, i64 %73
  %75 = load i8, i8* %74, align 1
  %76 = sext i8 %75 to i32
  %77 = call i32 (i8*, ...) @printf(i8* getelementptr inbounds ([3 x i8], [3 x i8]* @.str.2, i64 0, i64 0), i32 %76)
  br label %78

78:                                               ; preds = %71
  %79 = load i32, i32* %10, align 4
  %80 = add nsw i32 %79, 1
  store i32 %80, i32* %10, align 4
  br label %66

81:                                               ; preds = %66
  %82 = call i32 (i8*, ...) @printf(i8* getelementptr inbounds ([2 x i8], [2 x i8]* @.str.3, i64 0, i64 0))
  br label %83

83:                                               ; preds = %81, %63
  br label %15

84:                                               ; preds = %15
  ret i32 0
}

; Function Attrs: argmemonly nounwind willreturn
declare void @llvm.memcpy.p0i8.p0i8.i64(i8* noalias nocapture writeonly, i8* noalias nocapture readonly, i64, i1 immarg) #1

declare dso_local i32 @__isoc99_scanf(i8*, ...) #2

; Function Attrs: nounwind readonly
declare dso_local i64 @strlen(i8*) #3

; Function Attrs: nounwind readonly
declare dso_local i32 @strcmp(i8*, i8*) #3

declare dso_local i32 @printf(i8*, ...) #2


!llvm.module.flags = !{!0}
!llvm.ident = !{!1}

!0 = !{i32 1, !"wchar_size", i32 4}
!1 = !{!"clang version 10.0.0-4ubuntu1 "}
