; ModuleID = 'source-C-CXX/56/2601.c'
source_filename = "source-C-CXX/56/2601.c"
target datalayout = "e-m:e-p270:32:32-p271:32:32-p272:64:64-i64:64-f80:128-n8:16:32:64-S128"
target triple = "x86_64-pc-linux-gnu"

@M = dso_local local_unnamed_addr constant i32 50, align 4
@__const.main._s = private unnamed_addr constant [4 x i8] c"ing\00", align 1
@.str = private unnamed_addr constant [3 x i8] c"%d\00", align 1
@.str.1 = private unnamed_addr constant [3 x i8] c"%s\00", align 1

; Function Attrs: nofree nounwind sspstrong uwtable
define dso_local i32 @main(i32 %0, i8** nocapture readnone %1) local_unnamed_addr #0 {
  %3 = alloca [100 x i8], align 16
  %4 = alloca [4 x i8], align 1
  %5 = alloca i32, align 4
  %6 = getelementptr inbounds [100 x i8], [100 x i8]* %3, i64 0, i64 0
  call void @llvm.lifetime.start.p0i8(i64 100, i8* nonnull %6) #6
  %7 = getelementptr inbounds [4 x i8], [4 x i8]* %4, i64 0, i64 0
  call void @llvm.lifetime.start.p0i8(i64 4, i8* nonnull %7) #6
  %8 = bitcast i32* %5 to i8*
  call void @llvm.lifetime.start.p0i8(i64 4, i8* nonnull %8) #6
  %9 = call i32 (i8*, ...) @__isoc99_scanf(i8* getelementptr inbounds ([3 x i8], [3 x i8]* @.str, i64 0, i64 0), i32* nonnull %5)
  %10 = getelementptr inbounds [4 x i8], [4 x i8]* %4, i64 0, i64 1
  %11 = getelementptr inbounds [4 x i8], [4 x i8]* %4, i64 0, i64 2
  %12 = getelementptr inbounds [4 x i8], [4 x i8]* %4, i64 0, i64 3
  %13 = load i32, i32* %5, align 4, !tbaa !5
  %14 = add nsw i32 %13, -1
  store i32 %14, i32* %5, align 4, !tbaa !5
  %15 = icmp eq i32 %13, 0
  br i1 %15, label %64, label %16

16:                                               ; preds = %2, %59
  %17 = call i32 (i8*, ...) @__isoc99_scanf(i8* getelementptr inbounds ([3 x i8], [3 x i8]* @.str.1, i64 0, i64 0), [100 x i8]* nonnull %3)
  %18 = call i64 @strlen(i8* noundef nonnull %6) #7
  %19 = trunc i64 %18 to i32
  %20 = add i32 %19, -3
  %21 = sext i32 %20 to i64
  %22 = getelementptr inbounds [100 x i8], [100 x i8]* %3, i64 0, i64 %21
  %23 = load i8, i8* %22, align 1, !tbaa !9
  store i8 %23, i8* %7, align 1, !tbaa !9
  %24 = add i32 %19, -2
  %25 = sext i32 %24 to i64
  %26 = getelementptr inbounds [100 x i8], [100 x i8]* %3, i64 0, i64 %25
  %27 = load i8, i8* %26, align 1, !tbaa !9
  store i8 %27, i8* %10, align 1, !tbaa !9
  %28 = shl i64 %18, 32
  %29 = add i64 %28, -4294967296
  %30 = ashr exact i64 %29, 32
  %31 = getelementptr inbounds [100 x i8], [100 x i8]* %3, i64 0, i64 %30
  %32 = load i8, i8* %31, align 1, !tbaa !9
  store i8 %32, i8* %11, align 1, !tbaa !9
  store i8 0, i8* %12, align 1, !tbaa !9
  %33 = call i32 @bcmp(i8* noundef nonnull dereferenceable(4) getelementptr inbounds ([4 x i8], [4 x i8]* @__const.main._s, i64 0, i64 0), i8* noundef nonnull dereferenceable(4) %7, i64 4)
  %34 = icmp eq i32 %33, 0
  br i1 %34, label %39, label %35

35:                                               ; preds = %16
  %36 = icmp sgt i32 %19, 2
  br i1 %36, label %37, label %59

37:                                               ; preds = %35
  %38 = zext i32 %24 to i64
  br label %51

39:                                               ; preds = %16
  %40 = icmp sgt i32 %19, 3
  br i1 %40, label %41, label %59

41:                                               ; preds = %39
  %42 = zext i32 %20 to i64
  br label %43

43:                                               ; preds = %41, %43
  %44 = phi i64 [ 0, %41 ], [ %49, %43 ]
  %45 = getelementptr inbounds [100 x i8], [100 x i8]* %3, i64 0, i64 %44
  %46 = load i8, i8* %45, align 1, !tbaa !9
  %47 = sext i8 %46 to i32
  %48 = call i32 @putchar(i32 %47)
  %49 = add nuw nsw i64 %44, 1
  %50 = icmp eq i64 %49, %42
  br i1 %50, label %59, label %43, !llvm.loop !10

51:                                               ; preds = %37, %51
  %52 = phi i64 [ 0, %37 ], [ %57, %51 ]
  %53 = getelementptr inbounds [100 x i8], [100 x i8]* %3, i64 0, i64 %52
  %54 = load i8, i8* %53, align 1, !tbaa !9
  %55 = sext i8 %54 to i32
  %56 = call i32 @putchar(i32 %55)
  %57 = add nuw nsw i64 %52, 1
  %58 = icmp eq i64 %57, %38
  br i1 %58, label %59, label %51, !llvm.loop !12

59:                                               ; preds = %51, %43, %35, %39
  %60 = call i32 @putchar(i32 10)
  %61 = load i32, i32* %5, align 4, !tbaa !5
  %62 = add nsw i32 %61, -1
  store i32 %62, i32* %5, align 4, !tbaa !5
  %63 = icmp eq i32 %61, 0
  br i1 %63, label %64, label %16, !llvm.loop !13

64:                                               ; preds = %59, %2
  call void @llvm.lifetime.end.p0i8(i64 4, i8* nonnull %8) #6
  call void @llvm.lifetime.end.p0i8(i64 4, i8* nonnull %7) #6
  call void @llvm.lifetime.end.p0i8(i64 100, i8* nonnull %6) #6
  ret i32 0
}

; Function Attrs: argmemonly mustprogress nofree nosync nounwind willreturn
declare void @llvm.lifetime.start.p0i8(i64 immarg, i8* nocapture) #1

; Function Attrs: nofree nounwind
declare noundef i32 @__isoc99_scanf(i8* nocapture noundef readonly, ...) local_unnamed_addr #2

; Function Attrs: argmemonly mustprogress nofree nounwind readonly willreturn
declare i64 @strlen(i8* nocapture) local_unnamed_addr #3

; Function Attrs: argmemonly mustprogress nofree nosync nounwind willreturn
declare void @llvm.lifetime.end.p0i8(i64 immarg, i8* nocapture) #1

; Function Attrs: argmemonly nofree nounwind readonly willreturn
declare i32 @bcmp(i8* nocapture, i8* nocapture, i64) local_unnamed_addr #4

; Function Attrs: nofree nounwind
declare noundef i32 @putchar(i32 noundef) local_unnamed_addr #5


!llvm.module.flags = !{!0, !1, !2, !3}
!llvm.ident = !{!4}

!0 = !{i32 1, !"wchar_size", i32 4}
!1 = !{i32 7, !"PIC Level", i32 2}
!2 = !{i32 7, !"PIE Level", i32 2}
!3 = !{i32 7, !"uwtable", i32 1}
!4 = !{!"clang version 13.0.0"}
!5 = !{!6, !6, i64 0}
!6 = !{!"int", !7, i64 0}
!7 = !{!"omnipotent char", !8, i64 0}
!8 = !{!"Simple C/C++ TBAA"}
!9 = !{!7, !7, i64 0}
!10 = distinct !{!10, !11}
!11 = !{!"llvm.loop.mustprogress"}
!12 = distinct !{!12, !11}
!13 = distinct !{!13, !11}
